                              1 ;;; gcc for m6809 : Mar 17 2019 13:25:32
                              2 ;;; 4.3.6 (gcc6809)
                              3 ;;; ABI version 1
                              4 ;;; -mabi=bx -mint8 -fomit-frame-pointer -O0
                              5 	.module	debug.c
                              6 	.area	.text
   0000                       7 LC0:
   0000 46 49 4C 45 3A 80     8 	.byte	70,73,76,69,58,-128,0
        00
   0007                       9 LC1:
   0007 4C 49 4E 45 3A 80    10 	.byte	76,73,78,69,58,-128,0
        00
   000E                      11 LC2:
   000E 56 41 4C 55 45 3A    12 	.byte	86,65,76,85,69,58,-128,0
        80 00
                             13 	.globl	__f_debug
   0016                      14 __f_debug:
   0016 34 60         [ 7]   15 	pshs	y,u
   0018 32 E8 EF      [ 5]   16 	leas	-17,s
   001B 33 E4         [ 4]   17 	leau	,s
   001D AF 48         [ 6]   18 	stx	8,u
   001F E7 47         [ 5]   19 	stb	7,u
   0021 10 EF C4      [ 6]   20 	sts	,u
   0024 30 E4         [ 4]   21 	leax	,s
   0026 AF 45         [ 6]   22 	stx	5,u
   0028 EC C8 1B      [ 6]   23 	ldd	27,u
   002B E3 C8 1D      [ 7]   24 	addd	29,u; addhi3,3
   002E ED 4C         [ 6]   25 	std	12,u
   0030 8E 00 00      [ 3]   26 	ldx	#0
   0033 AF C8 1D      [ 6]   27 	stx	29,u
   0036 20 09         [ 3]   28 	bra	L2
   0038                      29 L4:
   0038 EC C8 1D      [ 6]   30 	ldd	29,u
   003B C3 00 01      [ 4]   31 	addd	#1; addhi3,3
   003E ED C8 1D      [ 6]   32 	std	29,u
   0041                      33 L2:
   0041 EC 4C         [ 6]   34 	ldd	12,u
   0043 C3 FF FF      [ 4]   35 	addd	#-1; addhi3,3
   0046 ED 4C         [ 6]   36 	std	12,u
   0048 E6 D8 0C      [ 8]   37 	ldb	[12,u]
   004B C1 5C         [ 2]   38 	cmpb	#92	;cmpqi:
   004D 27 07         [ 3]   39 	beq	L3
   004F AE 4C         [ 6]   40 	ldx	12,u
   0051 AC C8 1B      [ 7]   41 	cmpx	27,u	;cmphi:
   0054 26 E2         [ 3]   42 	bne	L4
   0056                      43 L3:
   0056 AE C8 1D      [ 6]   44 	ldx	29,u
   0059 EC C8 1D      [ 6]   45 	ldd	29,u
   005C C3 FF FF      [ 4]   46 	addd	#-1; addhi3,3
   005F ED C8 1D      [ 6]   47 	std	29,u
   0062 1F 40         [ 6]   48 	tfr	s,d
   0064 34 10         [ 6]   49 	pshs	x	;subhi: R:d -= R:x
   0066 A3 E1         [ 9]   50 	subd	,s++
   0068 1F 04         [ 6]   51 	tfr	d,s
   006A 10 EF 43      [ 7]   52 	sts	3,u
   006D 8E 00 00      [ 3]   53 	ldx	#0
   0070 1E 01         [ 8]   54 	exg	d,x
   0072 E3 43         [ 7]   55 	addd	3,u; addhi3,3
   0074 1E 01         [ 8]   56 	exg	d,x
   0076 AF 43         [ 6]   57 	stx	3,u
   0078 AE 43         [ 6]   58 	ldx	3,u
   007A AF 4A         [ 6]   59 	stx	10,u
   007C 8E 00 00      [ 3]   60 	ldx	#0
   007F AF 4E         [ 6]   61 	stx	14,u
   0081 20 37         [ 3]   62 	bra	L5
   0083                      63 L7:
   0083 EC 4C         [ 6]   64 	ldd	12,u
   0085 C3 00 01      [ 4]   65 	addd	#1; addhi3,3
   0088 ED 4C         [ 6]   66 	std	12,u
   008A E6 D8 0C      [ 8]   67 	ldb	[12,u]
   008D E7 C8 10      [ 5]   68 	stb	16,u
   0090 E6 C8 10      [ 5]   69 	ldb	16,u
   0093 C1 60         [ 2]   70 	cmpb	#96	;cmpqi:
   0095 23 0F         [ 3]   71 	bls	L6
   0097 E6 C8 10      [ 5]   72 	ldb	16,u
   009A C1 7A         [ 2]   73 	cmpb	#122	;cmpqi:
   009C 22 08         [ 3]   74 	bhi	L6
   009E E6 C8 10      [ 5]   75 	ldb	16,u
   00A1 CB E0         [ 2]   76 	addb	#-32
   00A3 E7 C8 10      [ 5]   77 	stb	16,u
   00A6                      78 L6:
   00A6 AE 4E         [ 6]   79 	ldx	14,u
   00A8 1E 01         [ 8]   80 	exg	d,x
   00AA E3 4A         [ 7]   81 	addd	10,u; addhi3,3
   00AC 1E 01         [ 8]   82 	exg	d,x
   00AE E6 C8 10      [ 5]   83 	ldb	16,u
   00B1 E7 84         [ 4]   84 	stb	,x
   00B3 EC 4E         [ 6]   85 	ldd	14,u
   00B5 C3 00 01      [ 4]   86 	addd	#1; addhi3,3
   00B8 ED 4E         [ 6]   87 	std	14,u
   00BA                      88 L5:
   00BA AE 4E         [ 6]   89 	ldx	14,u
   00BC AC C8 1D      [ 7]   90 	cmpx	29,u	;cmphi:
   00BF 25 C2         [ 3]   91 	blo	L7
   00C1 AE C8 1D      [ 6]   92 	ldx	29,u
   00C4 1E 01         [ 8]   93 	exg	d,x
   00C6 E3 4A         [ 7]   94 	addd	10,u; addhi3,3
   00C8 1E 01         [ 8]   95 	exg	d,x
   00CA C6 80         [ 2]   96 	ldb	#-128
   00CC E7 84         [ 4]   97 	stb	,x
   00CE                      98 L13:
   00CE BD`00`00      [ 8]   99 	jsr	___DP_to_C8
   00D1 BD`00`00      [ 8]  100 	jsr	___Wait_Recal
   00D4 BD`00`00      [ 8]  101 	jsr	___Intensity_5F
   00D7 C6 88         [ 2]  102 	ldb	#-120
   00D9 E7 E2         [ 6]  103 	stb	,-s
   00DB AE 48         [ 6]  104 	ldx	8,u
   00DD C6 5A         [ 2]  105 	ldb	#90
   00DF BD`00`00      [ 8]  106 	jsr	_print_string
   00E2 32 61         [ 5]  107 	leas	1,s
   00E4 C6 88         [ 2]  108 	ldb	#-120
   00E6 E7 E2         [ 6]  109 	stb	,-s
   00E8 8E`00`00      [ 3]  110 	ldx	#LC0
   00EB C6 32         [ 2]  111 	ldb	#50
   00ED BD`00`00      [ 8]  112 	jsr	_print_string
   00F0 32 61         [ 5]  113 	leas	1,s
   00F2 AE 4A         [ 6]  114 	ldx	10,u
   00F4 C6 88         [ 2]  115 	ldb	#-120
   00F6 E7 E2         [ 6]  116 	stb	,-s
   00F8 C6 1E         [ 2]  117 	ldb	#30
   00FA BD`00`00      [ 8]  118 	jsr	_print_string
   00FD 32 61         [ 5]  119 	leas	1,s
   00FF C6 88         [ 2]  120 	ldb	#-120
   0101 E7 E2         [ 6]  121 	stb	,-s
   0103 8E`00`07      [ 3]  122 	ldx	#LC1
   0106 5F            [ 2]  123 	clrb
   0107 BD`00`00      [ 8]  124 	jsr	_print_string
   010A 32 61         [ 5]  125 	leas	1,s
   010C C6 88         [ 2]  126 	ldb	#-120
   010E E7 E2         [ 6]  127 	stb	,-s
   0110 AE C8 1F      [ 6]  128 	ldx	31,u
   0113 C6 EC         [ 2]  129 	ldb	#-20
   0115 BD`00`00      [ 8]  130 	jsr	_print_long_unsigned_int
   0118 32 61         [ 5]  131 	leas	1,s
   011A AE C8 17      [ 6]  132 	ldx	23,u
   011D 8C 00 00      [ 4]  133 	cmpx	#0
   0120 10 27 00 83   [ 6]  134 	lbeq	L8
   0124 C6 88         [ 2]  135 	ldb	#-120
   0126 E7 E2         [ 6]  136 	stb	,-s
   0128 8E`00`0E      [ 3]  137 	ldx	#LC2
   012B C6 CE         [ 2]  138 	ldb	#-50
   012D BD`00`00      [ 8]  139 	jsr	_print_string
   0130 32 61         [ 5]  140 	leas	1,s
   0132 E6 47         [ 5]  141 	ldb	7,u
   0134 E7 42         [ 5]  142 	stb	2,u
   0136 E6 42         [ 5]  143 	ldb	2,u
   0138 C1 01         [ 2]  144 	cmpb	#1	;cmpqi:
   013A 27 2C         [ 3]  145 	beq	L10
   013C E6 42         [ 5]  146 	ldb	2,u
   013E C1 01         [ 2]  147 	cmpb	#1	;cmpqi:
   0140 25 0F         [ 3]  148 	blo	L9
   0142 E6 42         [ 5]  149 	ldb	2,u
   0144 C1 02         [ 2]  150 	cmpb	#2	;cmpqi:
   0146 27 37         [ 3]  151 	beq	L11
   0148 E6 42         [ 5]  152 	ldb	2,u
   014A C1 03         [ 2]  153 	cmpb	#3	;cmpqi:
   014C 27 46         [ 3]  154 	beq	L12
   014E 16 00 56      [ 5]  155 	lbra	L8
   0151                     156 L9:
   0151 AE C8 17      [ 6]  157 	ldx	23,u
   0154 10 AE C8 19   [ 7]  158 	ldy	25,u
   0158 E6 A4         [ 4]  159 	ldb	,y
   015A 34 04         [ 6]  160 	pshs	b
   015C C6 88         [ 2]  161 	ldb	#-120
   015E E7 E2         [ 6]  162 	stb	,-s
   0160 C6 BA         [ 2]  163 	ldb	#-70
   0162 AD 84         [ 7]  164 	jsr	,x
   0164 32 62         [ 5]  165 	leas	2,s
   0166 20 3F         [ 3]  166 	bra	L8
   0168                     167 L10:
   0168 AE C8 17      [ 6]  168 	ldx	23,u
   016B 10 AE C8 19   [ 7]  169 	ldy	25,u
   016F E6 A4         [ 4]  170 	ldb	,y
   0171 34 04         [ 6]  171 	pshs	b
   0173 C6 88         [ 2]  172 	ldb	#-120
   0175 E7 E2         [ 6]  173 	stb	,-s
   0177 C6 BA         [ 2]  174 	ldb	#-70
   0179 AD 84         [ 7]  175 	jsr	,x
   017B 32 62         [ 5]  176 	leas	2,s
   017D 20 28         [ 3]  177 	bra	L8
   017F                     178 L11:
   017F 10 AE C8 17   [ 7]  179 	ldy	23,u
   0183 AE C8 19      [ 6]  180 	ldx	25,u
   0186 AE 84         [ 5]  181 	ldx	,x
   0188 C6 88         [ 2]  182 	ldb	#-120
   018A E7 E2         [ 6]  183 	stb	,-s
   018C C6 BA         [ 2]  184 	ldb	#-70
   018E AD A4         [ 7]  185 	jsr	,y
   0190 32 61         [ 5]  186 	leas	1,s
   0192 20 13         [ 3]  187 	bra	L8
   0194                     188 L12:
   0194 10 AE C8 17   [ 7]  189 	ldy	23,u
   0198 AE C8 19      [ 6]  190 	ldx	25,u
   019B AE 84         [ 5]  191 	ldx	,x
   019D C6 88         [ 2]  192 	ldb	#-120
   019F E7 E2         [ 6]  193 	stb	,-s
   01A1 C6 BA         [ 2]  194 	ldb	#-70
   01A3 AD A4         [ 7]  195 	jsr	,y
   01A5 32 61         [ 5]  196 	leas	1,s
   01A7                     197 L8:
   01A7 BD`00`00      [ 8]  198 	jsr	___Read_Btns
   01AA F6`00`00      [ 5]  199 	ldb	_Vec_Buttons
   01AD C4 01         [ 2]  200 	andb	#1
   01AF 5D            [ 2]  201 	tstb
   01B0 10 27 FF 1A   [ 6]  202 	lbeq	L13
   01B4 10 EE 45      [ 7]  203 	lds	5,u
   01B7 10 EE C4      [ 6]  204 	lds	,u
   01BA 32 E8 11      [ 5]  205 	leas	17,s
   01BD 35 E0         [ 8]  206 	puls	y,u,pc
ASxxxx Assembler V05.31  (Motorola 6809)                                Page 1
Hexadecimal [16-Bits]                                 Wed Mar 24 14:56:20 2021

Symbol Table

    .__.$$$.       =   2710 L   |     .__.ABS.       =   0000 G
    .__.CPU.       =   0000 L   |     .__.H$L.       =   0001 L
  2 L10                0168 R   |   2 L11                017F R
  2 L12                0194 R   |   2 L13                00CE R
  2 L2                 0041 R   |   2 L3                 0056 R
  2 L4                 0038 R   |   2 L5                 00BA R
  2 L6                 00A6 R   |   2 L7                 0083 R
  2 L8                 01A7 R   |   2 L9                 0151 R
  2 LC0                0000 R   |   2 LC1                0007 R
  2 LC2                000E R   |     _Vec_Buttons       **** GX
    ___DP_to_C8        **** GX  |     ___Intensity_5     **** GX
    ___Read_Btns       **** GX  |     ___Wait_Recal      **** GX
  2 __f_debug          0016 GR  |     _print_long_un     **** GX
    _print_string      **** GX

ASxxxx Assembler V05.31  (Motorola 6809)                                Page 2
Hexadecimal [16-Bits]                                 Wed Mar 24 14:56:20 2021

Area Table

[_CSEG]
   0 _CODE            size    0   flags C080
   2 .text            size  1BF   flags  100
[_DSEG]
   1 _DATA            size    0   flags C0C0

