                              1 ;;; gcc for m6809 : Mar 17 2019 13:25:32
                              2 ;;; 4.3.6 (gcc6809)
                              3 ;;; ABI version 1
                              4 ;;; -mabi=bx -mint8 -fomit-frame-pointer -O0
                              5 	.module	assert.c
                              6 	.globl	_yy0
                              7 	.area	.text
   0000                       8 _yy0:
   0000 5A                    9 	.byte	90
                             10 	.globl	_xx0
   0001                      11 _xx0:
   0001 88                   12 	.byte	-120
                             13 	.globl	_mm0
   0002                      14 _mm0:
   0002 41 53 53 45 52 54    15 	.byte	65,83,83,69,82,84,32,70
        20 46
   000A 41 49 4C 45 44 3A    16 	.byte	65,73,76,69,68,58,-128,0
        80 00
                             17 ;----- asm -----
                     0011    18 	. = . - 1
                             19 	
                             20 ;--- end asm ---
                             21 	.globl	_yy1
   0011                      22 _yy1:
   0011 28                   23 	.byte	40
                             24 	.globl	_xx1
   0012                      25 _xx1:
   0012 88                   26 	.byte	-120
                             27 	.globl	_mm1
   0013                      28 _mm1:
   0013 46 49 4C 45 3A 80    29 	.byte	70,73,76,69,58,-128,0
        00
                             30 ;----- asm -----
                     0019    31 	. = . - 1
                             32 	
                             33 ;--- end asm ---
                             34 	.globl	_yy2
   0019                      35 _yy2:
   0019 F6                   36 	.byte	-10
                             37 	.globl	_xx2
   001A                      38 _xx2:
   001A 88                   39 	.byte	-120
                             40 	.globl	_mm2
   001B                      41 _mm2:
   001B 46 55 4E 43 54 49    42 	.byte	70,85,78,67,84,73,79,78
        4F 4E
   0023 3A 80 00             43 	.byte	58,-128,0
                             44 ;----- asm -----
                     0025    45 	. = . - 1
                             46 	
                             47 ;--- end asm ---
                             48 	.globl	_yy3
   0025                      49 _yy3:
   0025 C4                   50 	.byte	-60
                             51 	.globl	_xx3
   0026                      52 _xx3:
   0026 88                   53 	.byte	-120
                             54 	.globl	_mm3
   0027                      55 _mm3:
   0027 4C 49 4E 45 3A 80    56 	.byte	76,73,78,69,58,-128,0
        00
                             57 	.globl	__f_assert_failed
   002E                      58 __f_assert_failed:
   002E 34 60         [ 7]   59 	pshs	y,u
   0030 32 E8 D6      [ 5]   60 	leas	-42,s
   0033 33 E4         [ 4]   61 	leau	,s
   0035 AF 4E         [ 6]   62 	stx	14,u
   0037 E7 4D         [ 5]   63 	stb	13,u
   0039 10 EF 42      [ 7]   64 	sts	2,u
   003C 30 E4         [ 4]   65 	leax	,s
   003E AF 4B         [ 6]   66 	stx	11,u
   0040 BD`00`00      [ 8]   67 	jsr	___Clear_Sound
   0043 E6 4D         [ 5]   68 	ldb	13,u
   0045 4F            [ 2]   69 	clra		;zero_extendqihi: R:b -> R:d
   0046 ED C4         [ 5]   70 	std	,u
   0048 EC C4         [ 5]   71 	ldd	,u
   004A E3 4E         [ 7]   72 	addd	14,u; addhi3,3
   004C ED C8 1D      [ 6]   73 	std	29,u
   004F 6F 4D         [ 7]   74 	clr	13,u
   0051 20 02         [ 3]   75 	bra	L2
   0053                      76 L4:
   0053 6C 4D         [ 7]   77 	inc	13,u
   0055                      78 L2:
   0055 EC C8 1D      [ 6]   79 	ldd	29,u
   0058 C3 FF FF      [ 4]   80 	addd	#-1; addhi3,3
   005B ED C8 1D      [ 6]   81 	std	29,u
   005E E6 D8 1D      [ 8]   82 	ldb	[29,u]
   0061 C1 5C         [ 2]   83 	cmpb	#92	;cmpqi:
   0063 27 0E         [ 3]   84 	beq	L3
   0065 E6 D8 1D      [ 8]   85 	ldb	[29,u]
   0068 C1 2F         [ 2]   86 	cmpb	#47	;cmpqi:
   006A 27 07         [ 3]   87 	beq	L3
   006C AE C8 1D      [ 6]   88 	ldx	29,u
   006F AC 4E         [ 7]   89 	cmpx	14,u	;cmphi:
   0071 26 E0         [ 3]   90 	bne	L4
   0073                      91 L3:
   0073 E6 4D         [ 5]   92 	ldb	13,u
   0075 6A 4D         [ 7]   93 	dec	13,u
   0077 4F            [ 2]   94 	clra		;zero_extendqihi: R:b -> R:d
   0078 ED C4         [ 5]   95 	std	,u
   007A 1F 40         [ 6]   96 	tfr	s,d
   007C A3 C4         [ 6]   97 	subd	,u	;subhi: R:d -= ,u
   007E 1F 04         [ 6]   98 	tfr	d,s
   0080 10 EF 45      [ 7]   99 	sts	5,u
   0083 8E 00 00      [ 3]  100 	ldx	#0
   0086 1E 01         [ 8]  101 	exg	d,x
   0088 E3 45         [ 7]  102 	addd	5,u; addhi3,3
   008A 1E 01         [ 8]  103 	exg	d,x
   008C AF 45         [ 6]  104 	stx	5,u
   008E AE 45         [ 6]  105 	ldx	5,u
   0090 AF C8 17      [ 6]  106 	stx	23,u
   0093 6F C8 1F      [ 7]  107 	clr	31,u
   0096 20 37         [ 3]  108 	bra	L5
   0098                     109 L7:
   0098 EC C8 1D      [ 6]  110 	ldd	29,u
   009B C3 00 01      [ 4]  111 	addd	#1; addhi3,3
   009E ED C8 1D      [ 6]  112 	std	29,u
   00A1 E6 D8 1D      [ 8]  113 	ldb	[29,u]
   00A4 E7 C8 20      [ 5]  114 	stb	32,u
   00A7 E6 C8 20      [ 5]  115 	ldb	32,u
   00AA C1 60         [ 2]  116 	cmpb	#96	;cmpqi:
   00AC 23 0F         [ 3]  117 	bls	L6
   00AE E6 C8 20      [ 5]  118 	ldb	32,u
   00B1 C1 7A         [ 2]  119 	cmpb	#122	;cmpqi:
   00B3 22 08         [ 3]  120 	bhi	L6
   00B5 E6 C8 20      [ 5]  121 	ldb	32,u
   00B8 CB E0         [ 2]  122 	addb	#-32
   00BA E7 C8 20      [ 5]  123 	stb	32,u
   00BD                     124 L6:
   00BD E6 C8 1F      [ 5]  125 	ldb	31,u
   00C0 4F            [ 2]  126 	clra		;zero_extendqihi: R:b -> R:d
   00C1 10 AE C8 17   [ 7]  127 	ldy	23,u
   00C5 30 AB         [ 8]  128 	leax	d,y
   00C7 E6 C8 20      [ 5]  129 	ldb	32,u
   00CA E7 84         [ 4]  130 	stb	,x
   00CC 6C C8 1F      [ 7]  131 	inc	31,u
   00CF                     132 L5:
   00CF E6 C8 1F      [ 5]  133 	ldb	31,u
   00D2 E1 4D         [ 5]  134 	cmpb	13,u	;cmpqi:
   00D4 25 C2         [ 3]  135 	blo	L7
   00D6 E6 4D         [ 5]  136 	ldb	13,u
   00D8 4F            [ 2]  137 	clra		;zero_extendqihi: R:b -> R:d
   00D9 10 AE C8 17   [ 7]  138 	ldy	23,u
   00DD 30 AB         [ 8]  139 	leax	d,y
   00DF C6 80         [ 2]  140 	ldb	#-128
   00E1 E7 84         [ 4]  141 	stb	,x
   00E3 30 C8 10      [ 5]  142 	leax	16,u
   00E6 BD`00`00      [ 8]  143 	jsr	___Clear_Score
   00E9 20 11         [ 3]  144 	bra	L8
   00EB                     145 L9:
   00EB 30 C8 10      [ 5]  146 	leax	16,u
   00EE C6 FF         [ 2]  147 	ldb	#-1
   00F0 BD`00`00      [ 8]  148 	jsr	__Add_Score_a
   00F3 EC C8 30      [ 6]  149 	ldd	48,u
   00F6 C3 FF 01      [ 4]  150 	addd	#-255; addhi3,3
   00F9 ED C8 30      [ 6]  151 	std	48,u
   00FC                     152 L8:
   00FC AE C8 30      [ 6]  153 	ldx	48,u
   00FF 8C 00 FF      [ 4]  154 	cmpx	#255	;cmphi:
   0102 22 E7         [ 3]  155 	bhi	L9
   0104 AE C8 30      [ 6]  156 	ldx	48,u
   0107 1F 10         [ 6]  157 	tfr	x,d	;movlsbqihi: R:x -> R:b
   0109 E7 C8 23      [ 5]  158 	stb	35,u
   010C 30 C8 10      [ 5]  159 	leax	16,u
   010F E6 C8 23      [ 5]  160 	ldb	35,u
   0112 BD`00`00      [ 8]  161 	jsr	__Add_Score_a
   0115 6F C8 1F      [ 7]  162 	clr	31,u
   0118                     163 L11:
   0118 E6 C8 1F      [ 5]  164 	ldb	31,u
   011B 4F            [ 2]  165 	clra		;zero_extendqihi: R:b -> R:d
   011C ED C4         [ 5]  166 	std	,u
   011E AE C4         [ 5]  167 	ldx	,u
   0120 1E 01         [ 8]  168 	exg	d,x
   0122 E3 C8 32      [ 7]  169 	addd	50,u; addhi3,3
   0125 1E 01         [ 8]  170 	exg	d,x
   0127 E6 84         [ 4]  171 	ldb	,x
   0129 E7 44         [ 5]  172 	stb	4,u
   012B 6D 44         [ 7]  173 	tst	4,u
   012D 27 04         [ 3]  174 	beq	L10
   012F C6 01         [ 2]  175 	ldb	#1
   0131 E7 44         [ 5]  176 	stb	4,u
   0133                     177 L10:
   0133 E6 44         [ 5]  178 	ldb	4,u
   0135 6C C8 1F      [ 7]  179 	inc	31,u
   0138 5D            [ 2]  180 	tstb
   0139 26 DD         [ 3]  181 	bne	L11
   013B E6 C8 1F      [ 5]  182 	ldb	31,u
   013E 4F            [ 2]  183 	clra		;zero_extendqihi: R:b -> R:d
   013F ED C4         [ 5]  184 	std	,u
   0141 1F 40         [ 6]  185 	tfr	s,d
   0143 A3 C4         [ 6]  186 	subd	,u	;subhi: R:d -= ,u
   0145 1F 04         [ 6]  187 	tfr	d,s
   0147 10 EF 47      [ 7]  188 	sts	7,u
   014A 8E 00 00      [ 3]  189 	ldx	#0
   014D 1E 01         [ 8]  190 	exg	d,x
   014F E3 47         [ 7]  191 	addd	7,u; addhi3,3
   0151 1E 01         [ 8]  192 	exg	d,x
   0153 AF 47         [ 6]  193 	stx	7,u
   0155 AE 47         [ 6]  194 	ldx	7,u
   0157 AF C8 19      [ 6]  195 	stx	25,u
   015A 6A C8 1F      [ 7]  196 	dec	31,u
   015D E6 C8 1F      [ 5]  197 	ldb	31,u
   0160 4F            [ 2]  198 	clra		;zero_extendqihi: R:b -> R:d
   0161 10 AE C8 19   [ 7]  199 	ldy	25,u
   0165 30 AB         [ 8]  200 	leax	d,y
   0167 C6 80         [ 2]  201 	ldb	#-128
   0169 E7 84         [ 4]  202 	stb	,x
   016B 20 39         [ 3]  203 	bra	L12
   016D                     204 L14:
   016D E6 C8 1F      [ 5]  205 	ldb	31,u
   0170 4F            [ 2]  206 	clra		;zero_extendqihi: R:b -> R:d
   0171 ED C4         [ 5]  207 	std	,u
   0173 AE C4         [ 5]  208 	ldx	,u
   0175 1E 01         [ 8]  209 	exg	d,x
   0177 E3 C8 32      [ 7]  210 	addd	50,u; addhi3,3
   017A 1E 01         [ 8]  211 	exg	d,x
   017C E6 84         [ 4]  212 	ldb	,x
   017E E7 C8 21      [ 5]  213 	stb	33,u
   0181 E6 C8 21      [ 5]  214 	ldb	33,u
   0184 C1 60         [ 2]  215 	cmpb	#96	;cmpqi:
   0186 23 0F         [ 3]  216 	bls	L13
   0188 E6 C8 21      [ 5]  217 	ldb	33,u
   018B C1 7A         [ 2]  218 	cmpb	#122	;cmpqi:
   018D 22 08         [ 3]  219 	bhi	L13
   018F E6 C8 21      [ 5]  220 	ldb	33,u
   0192 CB E0         [ 2]  221 	addb	#-32
   0194 E7 C8 21      [ 5]  222 	stb	33,u
   0197                     223 L13:
   0197 E6 C8 1F      [ 5]  224 	ldb	31,u
   019A 4F            [ 2]  225 	clra		;zero_extendqihi: R:b -> R:d
   019B 10 AE C8 19   [ 7]  226 	ldy	25,u
   019F 30 AB         [ 8]  227 	leax	d,y
   01A1 E6 C8 21      [ 5]  228 	ldb	33,u
   01A4 E7 84         [ 4]  229 	stb	,x
   01A6                     230 L12:
   01A6 6A C8 1F      [ 7]  231 	dec	31,u
   01A9 E6 C8 1F      [ 5]  232 	ldb	31,u
   01AC C1 FF         [ 2]  233 	cmpb	#-1	;cmpqi:
   01AE 26 BD         [ 3]  234 	bne	L14
   01B0 E6 C8 36      [ 5]  235 	ldb	54,u
   01B3 4F            [ 2]  236 	clra		;zero_extendqihi: R:b -> R:d
   01B4 ED C4         [ 5]  237 	std	,u
   01B6 1F 40         [ 6]  238 	tfr	s,d
   01B8 A3 C4         [ 6]  239 	subd	,u	;subhi: R:d -= ,u
   01BA 1F 04         [ 6]  240 	tfr	d,s
   01BC 10 EF 49      [ 7]  241 	sts	9,u
   01BF 8E 00 00      [ 3]  242 	ldx	#0
   01C2 1E 01         [ 8]  243 	exg	d,x
   01C4 E3 49         [ 7]  244 	addd	9,u; addhi3,3
   01C6 1E 01         [ 8]  245 	exg	d,x
   01C8 AF 49         [ 6]  246 	stx	9,u
   01CA AE 49         [ 6]  247 	ldx	9,u
   01CC AF C8 1B      [ 6]  248 	stx	27,u
   01CF 6F C8 1F      [ 7]  249 	clr	31,u
   01D2 20 4F         [ 3]  250 	bra	L15
   01D4                     251 L19:
   01D4 E6 C8 1F      [ 5]  252 	ldb	31,u
   01D7 4F            [ 2]  253 	clra		;zero_extendqihi: R:b -> R:d
   01D8 ED C4         [ 5]  254 	std	,u
   01DA AE C4         [ 5]  255 	ldx	,u
   01DC 1E 01         [ 8]  256 	exg	d,x
   01DE E3 C8 34      [ 7]  257 	addd	52,u; addhi3,3
   01E1 1E 01         [ 8]  258 	exg	d,x
   01E3 E6 84         [ 4]  259 	ldb	,x
   01E5 E7 C8 22      [ 5]  260 	stb	34,u
   01E8 E6 C8 22      [ 5]  261 	ldb	34,u
   01EB C1 60         [ 2]  262 	cmpb	#96	;cmpqi:
   01ED 23 0F         [ 3]  263 	bls	L16
   01EF E6 C8 22      [ 5]  264 	ldb	34,u
   01F2 C1 7A         [ 2]  265 	cmpb	#122	;cmpqi:
   01F4 22 08         [ 3]  266 	bhi	L16
   01F6 E6 C8 22      [ 5]  267 	ldb	34,u
   01F9 CB E0         [ 2]  268 	addb	#-32
   01FB E7 C8 22      [ 5]  269 	stb	34,u
   01FE                     270 L16:
   01FE E6 C8 22      [ 5]  271 	ldb	34,u
   0201 C1 1F         [ 2]  272 	cmpb	#31	;cmpqi:
   0203 23 07         [ 3]  273 	bls	L17
   0205 E6 C8 22      [ 5]  274 	ldb	34,u
   0208 C1 5F         [ 2]  275 	cmpb	#95	;cmpqi:
   020A 23 05         [ 3]  276 	bls	L18
   020C                     277 L17:
   020C C6 66         [ 2]  278 	ldb	#102
   020E E7 C8 22      [ 5]  279 	stb	34,u
   0211                     280 L18:
   0211 E6 C8 1F      [ 5]  281 	ldb	31,u
   0214 4F            [ 2]  282 	clra		;zero_extendqihi: R:b -> R:d
   0215 10 AE C8 1B   [ 7]  283 	ldy	27,u
   0219 30 AB         [ 8]  284 	leax	d,y
   021B E6 C8 22      [ 5]  285 	ldb	34,u
   021E E7 84         [ 4]  286 	stb	,x
   0220 6C C8 1F      [ 7]  287 	inc	31,u
   0223                     288 L15:
   0223 E6 C8 1F      [ 5]  289 	ldb	31,u
   0226 E1 C8 36      [ 5]  290 	cmpb	54,u	;cmpqi:
   0229 25 A9         [ 3]  291 	blo	L19
   022B E6 C8 36      [ 5]  292 	ldb	54,u
   022E 5A            [ 2]  293 	decb
   022F 4F            [ 2]  294 	clra		;zero_extendqihi: R:b -> R:d
   0230 10 AE C8 1B   [ 7]  295 	ldy	27,u
   0234 30 AB         [ 8]  296 	leax	d,y
   0236 C6 80         [ 2]  297 	ldb	#-128
   0238 E7 84         [ 4]  298 	stb	,x
   023A 8E F8 50      [ 3]  299 	ldx	#-1968
   023D BF`00`00      [ 6]  300 	stx	_Vec_Text_HW
   0240                     301 L20:
   0240 BD`00`00      [ 8]  302 	jsr	___Wait_Recal
   0243 BD`00`00      [ 8]  303 	jsr	___Intensity_5F
   0246 8E`00`00      [ 3]  304 	ldx	#_yy0
   0249 BD`00`00      [ 8]  305 	jsr	__Print_List
   024C AE C8 1B      [ 6]  306 	ldx	27,u
   024F AF C8 24      [ 6]  307 	stx	36,u
   0252 C6 46         [ 2]  308 	ldb	#70
   0254 E7 E2         [ 6]  309 	stb	,-s
   0256 AE C8 24      [ 6]  310 	ldx	36,u
   0259 C6 88         [ 2]  311 	ldb	#-120
   025B BD`00`00      [ 8]  312 	jsr	__Print_Str_d
   025E 32 61         [ 5]  313 	leas	1,s
   0260 AE C8 17      [ 6]  314 	ldx	23,u
   0263 AF C8 26      [ 6]  315 	stx	38,u
   0266 C6 14         [ 2]  316 	ldb	#20
   0268 E7 E2         [ 6]  317 	stb	,-s
   026A AE C8 26      [ 6]  318 	ldx	38,u
   026D C6 88         [ 2]  319 	ldb	#-120
   026F BD`00`00      [ 8]  320 	jsr	__Print_Str_d
   0272 32 61         [ 5]  321 	leas	1,s
   0274 AE C8 19      [ 6]  322 	ldx	25,u
   0277 AF C8 28      [ 6]  323 	stx	40,u
   027A C6 E2         [ 2]  324 	ldb	#-30
   027C E7 E2         [ 6]  325 	stb	,-s
   027E AE C8 28      [ 6]  326 	ldx	40,u
   0281 C6 88         [ 2]  327 	ldb	#-120
   0283 BD`00`00      [ 8]  328 	jsr	__Print_Str_d
   0286 32 61         [ 5]  329 	leas	1,s
   0288 30 C8 10      [ 5]  330 	leax	16,u
   028B C6 B0         [ 2]  331 	ldb	#-80
   028D E7 E2         [ 6]  332 	stb	,-s
   028F C6 88         [ 2]  333 	ldb	#-120
   0291 BD`00`00      [ 8]  334 	jsr	__Print_Str_d
   0294 32 61         [ 5]  335 	leas	1,s
   0296 BD`00`00      [ 8]  336 	jsr	___Read_Btns
   0299 F6`00`00      [ 5]  337 	ldb	_Vec_Buttons
   029C C4 01         [ 2]  338 	andb	#1
   029E 5D            [ 2]  339 	tstb
   029F 10 27 FF 9D   [ 6]  340 	lbeq	L20
   02A3 10 EE 4B      [ 7]  341 	lds	11,u
   02A6 10 EE 42      [ 7]  342 	lds	2,u
   02A9 32 E8 2A      [ 5]  343 	leas	42,s
   02AC 35 E0         [ 8]  344 	puls	y,u,pc
ASxxxx Assembler V05.31  (Motorola 6809)                                Page 1
Hexadecimal [16-Bits]                                 Wed Mar 24 14:56:20 2021

Symbol Table

    .__.$$$.       =   2710 L   |     .__.ABS.       =   0000 G
    .__.CPU.       =   0000 L   |     .__.H$L.       =   0001 L
  2 L10                0133 R   |   2 L11                0118 R
  2 L12                01A6 R   |   2 L13                0197 R
  2 L14                016D R   |   2 L15                0223 R
  2 L16                01FE R   |   2 L17                020C R
  2 L18                0211 R   |   2 L19                01D4 R
  2 L2                 0055 R   |   2 L20                0240 R
  2 L3                 0073 R   |   2 L4                 0053 R
  2 L5                 00CF R   |   2 L6                 00BD R
  2 L7                 0098 R   |   2 L8                 00FC R
  2 L9                 00EB R   |     _Vec_Buttons       **** GX
    _Vec_Text_HW       **** GX  |     __Add_Score_a      **** GX
    __Print_List       **** GX  |     __Print_Str_d      **** GX
    ___Clear_Score     **** GX  |     ___Clear_Sound     **** GX
    ___Intensity_5     **** GX  |     ___Read_Btns       **** GX
    ___Wait_Recal      **** GX  |   2 __f_assert_fai     002E GR
  2 _mm0               0002 GR  |   2 _mm1               0013 GR
  2 _mm2               001B GR  |   2 _mm3               0027 GR
  2 _xx0               0001 GR  |   2 _xx1               0012 GR
  2 _xx2               001A GR  |   2 _xx3               0026 GR
  2 _yy0               0000 GR  |   2 _yy1               0011 GR
  2 _yy2               0019 GR  |   2 _yy3               0025 GR

ASxxxx Assembler V05.31  (Motorola 6809)                                Page 2
Hexadecimal [16-Bits]                                 Wed Mar 24 14:56:20 2021

Area Table

[_CSEG]
   0 _CODE            size    0   flags C080
   2 .text            size  2AE   flags  100
[_DSEG]
   1 _DATA            size    0   flags C0C0

